; Function Attrs: mustprogress uwtable
define hidden noundef zeroext i1 @_ZN4lean13is_annotationERKNS_4exprERKNS_4nameE(ptr noundef nonnull readonly align 8 captures(none) dereferenceable(8) %0, ptr noundef nonnull readonly align 8 captures(none) dereferenceable(8) %1) local_unnamed_addr #0 personality ptr @__gxx_personality_v0 {
  %3 = alloca %"class.lean::optional", align 8
  %4 = alloca %"class.lean::name", align 8
  call void @llvm.lifetime.start.p0(i64 16, ptr nonnull %3) #16
  call void @_ZN4lean13is_annotationERKNS_4exprE(ptr dead_on_unwind nonnull writable sret(%"class.lean::optional") align 8 %3, ptr noundef nonnull align 8 dereferenceable(8) %0)
  %5 = load i8, ptr %3, align 8, !tbaa !34, !range !29, !noundef !30
  %6 = trunc nuw i8 %5 to i1
  br i1 %6, label %7, label %_ZN4lean8optionalINS_4exprEED2Ev.exit

7:                                                ; preds = %2
  call void @llvm.lifetime.start.p0(i64 8, ptr nonnull %4) #16
  %8 = getelementptr inbounds nuw i8, ptr %3, i64 8
  invoke void @_ZN4lean19get_annotation_kindERKNS_4exprE(ptr dead_on_unwind nonnull writable sret(%"class.lean::name") align 8 %4, ptr noundef nonnull align 8 dereferenceable(8) %8)
          to label %9 unwind label %43

9:                                                ; preds = %7
  %10 = load ptr, ptr %4, align 8, !tbaa !3
  %11 = load ptr, ptr %1, align 8, !tbaa !3
  %12 = invoke zeroext i8 @lean_name_eq(ptr noundef %10, ptr noundef %11)
          to label %13 unwind label %45

13:                                               ; preds = %9
  %14 = icmp ne i8 %12, 0
  %15 = ptrtoint ptr %10 to i64
  %16 = and i64 %15, 1
  %.not.i.i = icmp eq i64 %16, 0
  br i1 %.not.i.i, label %17, label %27

17:                                               ; preds = %13
  %18 = load i32, ptr %10, align 4, !tbaa !10
  %19 = icmp sgt i32 %18, 1
  br i1 %19, label %20, label %22, !prof !13

20:                                               ; preds = %17
  %21 = add nsw i32 %18, -1
  store i32 %21, ptr %10, align 4, !tbaa !10
  br label %27

22:                                               ; preds = %17
  %.not.i.i.i = icmp eq i32 %18, 0
  br i1 %.not.i.i.i, label %27, label %23

23:                                               ; preds = %22
  invoke void @lean_dec_ref_cold(ptr noundef nonnull %10)
          to label %27 unwind label %24

24:                                               ; preds = %23
  %25 = landingpad { ptr, i32 }
          catch ptr null
  %26 = extractvalue { ptr, i32 } %25, 0
  tail call void @__clang_call_terminate(ptr %26) #17
  unreachable

27:                                               ; preds = %23, %22, %20, %13
  call void @llvm.lifetime.end.p0(i64 8, ptr nonnull %4) #16
  %28 = getelementptr inbounds nuw i8, ptr %3, i64 8
  %29 = load ptr, ptr %28, align 8, !tbaa !3
  %30 = ptrtoint ptr %29 to i64
  %31 = and i64 %30, 1
  %.not.i.i.i12 = icmp eq i64 %31, 0
  br i1 %.not.i.i.i12, label %32, label %_ZN4lean8optionalINS_4exprEED2Ev.exit

32:                                               ; preds = %27
  %33 = load i32, ptr %29, align 4, !tbaa !10
  %34 = icmp sgt i32 %33, 1
  br i1 %34, label %35, label %37, !prof !13

35:                                               ; preds = %32
  %36 = add nsw i32 %33, -1
  store i32 %36, ptr %29, align 4, !tbaa !10
  br label %_ZN4lean8optionalINS_4exprEED2Ev.exit

37:                                               ; preds = %32
  %.not.i.i.i.i = icmp eq i32 %33, 0
  br i1 %.not.i.i.i.i, label %_ZN4lean8optionalINS_4exprEED2Ev.exit, label %38

38:                                               ; preds = %37
  invoke void @lean_dec_ref_cold(ptr noundef nonnull %29)
          to label %_ZN4lean8optionalINS_4exprEED2Ev.exit unwind label %39

39:                                               ; preds = %38
  %40 = landingpad { ptr, i32 }
          catch ptr null
  %41 = extractvalue { ptr, i32 } %40, 0
  tail call void @__clang_call_terminate(ptr %41) #17
  unreachable

_ZN4lean8optionalINS_4exprEED2Ev.exit:            ; preds = %2, %27, %35, %37, %38
  %42 = phi i1 [ %14, %27 ], [ %14, %35 ], [ %14, %37 ], [ %14, %38 ], [ false, %2 ]
  call void @llvm.lifetime.end.p0(i64 16, ptr nonnull %3) #16
  ret i1 %42

43:                                               ; preds = %7
  %44 = landingpad { ptr, i32 }
          cleanup
  br label %47

45:                                               ; preds = %9
  %46 = landingpad { ptr, i32 }
          cleanup
  call void @_ZN4lean10object_refD2Ev(ptr noundef nonnull align 8 dereferenceable(8) %4) #16
  br label %47

47:                                               ; preds = %43, %45
  %.pn = phi { ptr, i32 } [ %46, %45 ], [ %44, %43 ]
  call void @llvm.lifetime.end.p0(i64 8, ptr nonnull %4) #16
  call void @_ZN4lean8optionalINS_4exprEED2Ev(ptr noundef nonnull align 8 dereferenceable(16) %3) #16
  call void @llvm.lifetime.end.p0(i64 16, ptr nonnull %3) #16
  resume { ptr, i32 } %.pn
}